target datalayout = "e-m:e-p270:32:32-p271:32:32-p272:64:64-i64:64-i128:128-f80:128-n8:16:32:64-S128"
target triple = "x86_64-pc-linux-gnu"

%struct.extra_file_info = type { ptr, %struct.stat, ptr }
%struct.stat = type { i64, i64, i64, i32, i32, i32, i32, i64, i64, i64, i64, %struct.timespec, %struct.timespec, %struct.timespec, [3 x i64] }
%struct.timespec = type { i64, i64 }

; Function Attrs: nounwind uwtable
define internal void @extra_file_info_clear(ptr noundef %0, ptr noundef %1) #0 {
  %3 = alloca ptr, align 8
  %4 = alloca ptr, align 8
  %5 = alloca ptr, align 8
  store ptr %0, ptr %3, align 8, !tbaa !17
  store ptr %1, ptr %4, align 8, !tbaa !50
  call void @llvm.lifetime.start.p0(i64 8, ptr %5) #11
  %6 = load ptr, ptr %3, align 8, !tbaa !17
  store ptr %6, ptr %5, align 8, !tbaa !52
  %7 = load ptr, ptr %5, align 8, !tbaa !52
  %8 = getelementptr inbounds nuw %struct.extra_file_info, ptr %7, i32 0, i32 0
  %9 = load ptr, ptr %8, align 8, !tbaa !58
  call void @free(ptr noundef %9) #11
  %10 = load ptr, ptr %5, align 8, !tbaa !52
  %11 = getelementptr inbounds nuw %struct.extra_file_info, ptr %10, i32 0, i32 2
  %12 = load ptr, ptr %11, align 8, !tbaa !54
  call void @free(ptr noundef %12) #11
  %13 = load ptr, ptr %5, align 8, !tbaa !52
  call void @free(ptr noundef %13) #11
  call void @llvm.lifetime.end.p0(i64 8, ptr %5) #11
  ret void
}