; Function Attrs: mustprogress nounwind willreturn uwtable
define internal void @extra_file_info_clear(ptr noundef captures(none) %0, ptr readnone captures(none) %1) #10 {
  %3 = load ptr, ptr %0, align 8, !tbaa !56
  tail call void @free(ptr noundef %3) #19
  %4 = getelementptr inbounds nuw i8, ptr %0, i64 152
  %5 = load ptr, ptr %4, align 8, !tbaa !49
  tail call void @free(ptr noundef %5) #19
  tail call void @free(ptr noundef %0) #19
  ret void
}